ccopy_reg
_reconstructor
p0
(cgraph_tool
PropertyMap
p1
c__builtin__
object
p2
Ntp3
Rp4
(dp5
S'key_type'
p6
S'v'
p7
sS'value_type'
p8
S'vector<double>'
p9
sS'g'
p10
g0
(cgraph_tool
Graph
p11
g2
Ntp12
Rp13
(dp14
S'blob'
p15
S'\x1f\x8b\x08\x00\xe5 \xa8U\x02\xffE\xd4\xd7V\x1aQ\x18@a\xb0\xf7\xde\xeb\xb1\x8b"\x0e\xc5\x02\xf6\xde{\xef"\x0c\x88\x05\x10\x06\x15\x8d1\xc6\x18c\x8c1\xf7y\x97<G\xae\xf3$\t\xd1=r3\xdf\xd9\x87\x813\xac\x7f\xf1\xe7\xe7/\xe1V\xb4\x9a\xdf\x9a\x97\x97;`\xf7\xef7)>\xdf\x91\xd8\xf3x\xed\x81\xb0py\x8edQ\xbf\xaf(~\x9b\xad\xb9\xf9m\xdf\x10<\x94\xcfd\xa7\xc1)\xeb\x84[\xf6\xca\x01\xbb";\xc5^X\x9c\xca\x81\xa0\xc7\xe7\x15&\x83\xc9`1\x8bz\x87\xef\xf8\xd8\xa3\x08\x97\xc9\xec2Ze\x8b^,\xd8\x151\x1e\xf2\x8aV!Ymf\x8b\xcd\xd8&L\x92\xb1E4J&I\xd2\x89\xa0bW\x826a\xb4X"\x1f\xa5x\x1crP/\xcc\x92$d\xa7;B\xa7\' ;\xfe}\x97^H\xe2\xffq\x84?\xe0\xf3\x07#\xcb\xc8\xfb\xe5\xf3\xb7u\xe4\x8e\x97\x95\xf6\xc7\xeb\x03F\xbd^\xb5n\xa4\xb9C\xd1\x07(\xaa\x1c\xc5.\xa1\x98B\x14_\x8c\xe2\x16Pb>J\x98C\xc9\xaa\x92\x1eQ\xea\nJ\xb9E\xe9\xf7(M\xdd\xcd\xecB\x19>\x94]\x81\xb2\xd4\x96kB9\x1e\x94\x9f\x88\xf2\x1ePa\x0c*xB\xc5\xf1\xa8\xe8\x19\x95\x9e\xa1\x92\x1eT\x1e\x85\xca\x8ePE6\x12!Tu\x83*\xd7P\xcd:\xaa>FuAT\xbb\x88t\xean\xbd\x175\xee\xa3\x86C\xd44\x8c\xf4N\xd4\xdc\x81\x0c\x1b\xc8\x18F\xd2\x002;\x90)\x17\xb5\x0c!\x8b\x1d\xb5\xa9j\x1dA\xd6\t\xd4\xbe\x83:\x9a\x91m\x0bue\xa2\xce\x13\xd4S\x82\xba\xd5\xd6w\x89z\xa7\xd1\x80\x84\xfa\xd5\x93\x0e\xb5\xa0\xc1=4\xd2\x8a\x86\x9b\xd0\x98z\xaa\xd1I4aE\xe3\x9bh\xca\x8f&G\xd1\x8c:9\xd3\xbd\xd1\xaf\x9aKN \xce.\x10\x17f\xe3\x88\xf3K\xc4\xa5\xd8y\xe2b-q%-\x95\xb8\xec&\xaeU\xaa?\xd3j\x80\xb8aP\xa7a\xbd\x86\xb8eS\x07hs\x9c\xb8\xd3>F\xdc\xde%\xda\xdb,\xc4\xddm\xa2\xc3\xdcO\xdc\x1b$\xca.u\x88\x9cz\xa2[\xbbLt\xc9DO\xce\x0cq\xbf\x91x(7\x10\x0f\xa2\x89\xc7\xd5:\xe2Q\x19\xd1\x97\x91E\xf4\xd6\x13O:\xbb\x89\xfe)b\xb0N\x9d\xd7\xc0*1t%\x88\xca\x19\xf1L)%\x9e^\x10\xc3\xd7F\xe2\xf9%\xf1\xf2\xbc\x8fxq\x8a\xaeB\xdaW\xbd#]\x87I\xefI7U\xa4\x0f\xa4\xdb\x14\xd2G\xd2\x9d\x86\xf4\x89t\x9fN\xfaLz\xc8#}!=&\x91\xbe\x92\x9e\nH\xdfH\xcfE\xa4\xef\xfcA\xff\x05\xccz\xb1x\xa5\x06\x00\x00'
p16
sbsS'vals'
p17
(lp18
(lp19
F-1797.2217093789648
aF-2012.5561113944127
aa(lp20
F-1797.5660439985159
aF-2012.5835967682456
aa(lp21
F-2340.679120375643
aF-632.2683958812634
aa(lp22
F-2339.8398773928307
aF-631.9871974712485
aa(lp23
F336.5360939397154
aF2553.729682382064
aa(lp24
F336.60069776666796
aF2553.9882157893267
aa(lp25
F801.1165381058513
aF2733.8268794282067
aa(lp26
F800.8826840251743
aF2733.704561321025
aa(lp27
F859.8409867276176
aF3113.2000910187185
aa(lp28
F859.6662584351062
aF3113.0018644557863
aa(lp29
F877.1735846967032
aF3248.306309002536
aa(lp30
F876.9216817566776
aF3248.21802864046
aa(lp31
F-1749.2480816688412
aF-2315.977881681222
aa(lp32
F-1748.9011170221988
aF-2315.957573353734
aa(lp33
F-1576.2589290493938
aF-2485.369872735465
aa(lp34
F-1575.9111840414942
aF-2485.362030515914
aa(lp35
F-868.0626588299414
aF-105.71733895398785
aa(lp36
F-868.3124918481179
aF-105.62649487152248
aa(lp37
F-1083.9226518947842
aF-278.70150182346947
aa(lp38
F-1083.6912526827755
aF-278.82446014422146
aa(lp39
F-1402.0762735721273
aF-977.1370048669997
aa(lp40
F-1401.8444263852641
aF-977.2685885153633
aa(lp41
F1002.2148161602901
aF3355.0758256167087
aa(lp42
F1002.4244305475767
aF3355.2733478470504
aa(lp43
F262.25495044782616
aF3143.67473840081
aa(lp44
F262.068308085289
aF3143.861870132818
aa(lp45
F1234.1975207100602
aF2925.1105074127263
aa(lp46
F1234.463314176929
aF2925.0984885682337
aa(lp47
F-690.6460592463989
aF-639.3670788547496
aa(lp48
F-690.3314497112432
aF-639.4256955473818
aa(lp49
F-1548.1788644759943
aF110.52778713049442
aa(lp50
F-1546.5809899056762
aF111.65093474291723
aa(lp51
F-1044.0035803764229
aF-498.4343960835419
aa(lp52
F-1044.1739523070692
aF-498.2333290668672
aa(lp53
F167.13151713341463
aF1519.9118716834885
aa(lp54
F167.1801171448076
aF1520.1712693146676
aa(lp55
F-705.786152079622
aF936.2913946538013
aa(lp56
F-705.7754194103271
aF936.5578050716508
aa(lp57
F195.09631186146015
aF2047.6835500277996
aa(lp58
F195.10897145013604
aF2048.011423177892
aa(lp59
F-1199.0829731163335
aF44.93662127511602
aa(lp60
F-1199.0095666046439
aF45.19093794368863
aa(lp61
F-1931.764510816064
aF-865.0731300796131
aa(lp62
F-1931.3275608154026
aF-865.1254710257542
aa(lp63
F-1814.1817838182585
aF-1450.9144825670317
aa(lp64
F-1814.4589318185285
aF-1451.1013414609815
aa(lp65
F-359.42990638372004
aF1099.3060307376438
aa(lp66
F-359.4735091585909
aF1099.566894937201
aa(lp67
F-746.939800004712
aF-940.054430031463
aa(lp68
F-747.2013954259779
aF-940.1126957992711
aa(lp69
F-807.2531323834859
aF-1022.0159974175504
aa(lp70
F-806.9896270553721
aF-1022.0665483186715
aa(lp71
F-0.5233362334975569
aF-698.4497035845967
aa(lp72
F-0.9462334934004815
aF-698.5098332514867
aa(lp73
F-106.81467749429527
aF-797.9432234750581
aa(lp74
F-106.45912757241447
aF-797.9287639761163
aa(lp75
F249.88948291985082
aF261.60934306782684
aa(lp76
F250.23008694524916
aF261.5747074290772
aa(lp77
F2.9032336358206337
aF1014.6427501460987
aa(lp78
F3.0177128826661277
aF1014.4025269488004
aa(lp79
F-486.1990099392561
aF-240.75744088101305
aa(lp80
F-485.9431526953454
aF-240.82464256065302
aa(lp81
F-493.9725329518059
aF-515.3634425842911
aa(lp82
F-493.7146822838871
aF-515.430687866842
aa(lp83
F-1231.85049215477
aF-863.077761299446
aa(lp84
F-1232.1190726743637
aF-863.0962771367624
aa(lp85
F-614.2523341040189
aF-1012.5027207422768
aa(lp86
F-613.8782886770431
aF-1012.3749109016887
aa(lp87
F-399.35136272273616
aF-951.5108364153664
aa(lp88
F-399.0165248512072
aF-951.415873268376
aa(lp89
F-557.5277905225319
aF-1084.5039880583026
aa(lp90
F-557.186986679825
aF-1084.4729124916018
aa(lp91
F93.33294040679003
aF-266.6488261445494
aa(lp92
F92.9938610756293
aF-266.71467797764086
aa(lp93
F187.93492545540747
aF832.3591196527003
aa(lp94
F187.8505848416771
aF832.6115551687122
aa(lp95
F-238.17855046480295
aF-345.04513056259714
aa(lp96
F-237.91806845334338
aF-345.13820284005817
aa(lp97
F-1463.1330504703344
aF-895.5931497226139
aa(lp98
F-1462.8780832395676
aF-895.5311101583684
aa(lp99
F726.8110510641528
aF2896.0395324243677
aa(lp100
F726.6206495101528
aF2895.8543112380326
aa(lp101
F583.975177613965
aF2619.5220183848633
aa(lp102
F583.7827937075289
aF2619.3099808235715
aa(lp103
F355.47525730729836
aF2329.897170611475
aa(lp104
F355.40230163018816
aF2329.6226429033827
aa(lp105
F-1768.9157027458052
aF-2105.017705663722
aa(lp106
F-1768.568400623488
aF-2105.0015940445733
aa(lp107
F75.49631100099293
aF1401.6686728483396
aa(lp108
F75.47603022922164
aF1401.9335492063235
aa(lp109
F-565.9258962655005
aF1066.0701932130628
aa(lp110
F-565.9007010368772
aF1066.3403869596177
aa(lp111
F161.68837733839078
aF930.5213934573713
aa(lp112
F161.78396967718584
aF930.2790621449958
aa(lp113
F213.7030714836121
aF-207.12146107429282
aa(lp114
F214.03139886911123
aF-207.0615646294087
aa(lp115
F149.87786079613667
aF-506.40495570374554
aa(lp116
F150.1972379782411
aF-506.43349788056975
aa(lp117
F-495.9525023165217
aF-983.6187125482394
aa(lp118
F-496.2893785877804
aF-983.6175155917676
aa(lp119
F-1898.9192936096201
aF-1468.3776911715186
aa(lp120
F-1899.383297663041
aF-1468.222503157174
aa(lp121
F-1831.9050720791681
aF-1820.8951113880494
aa(lp122
F-1831.5827085794988
aF-1820.8760084535234
aa(lp123
F-1701.6693252762047
aF-910.9247188350947
aa(lp124
F-1701.4321814373973
aF-911.0466667797854
aa(lp125
F-2474.8047562354664
aF-735.3624081601803
aa(lp126
F-2402.9640770877777
aF-733.6362402226738
aa(lp127
F-1414.7389350276712
aF223.9158684736329
aa(lp128
F-1415.0172985860308
aF223.73806033897478
aa(lp129
F-1089.396541790377
aF-73.55304048197992
aa(lp130
F-1089.3307641100519
aF-73.29775573027295
aa(lp131
F-308.68064150564834
aF-357.1084382807175
aa(lp132
F-308.4064986102838
aF-357.2123502858738
aa(lp133
F-42.96254578239852
aF1606.542974901446
aa(lp134
F-42.95945455090296
aF1606.2765568733928
aa(lp135
F-949.3452513933503
aF-734.7884944973633
aa(lp136
F-949.5999494603226
aF-734.7281637364607
aa(lp137
F-936.671151592143
aF-758.5916991820053
aa(lp138
F-936.9513986753243
aF-758.5730069735013
aa(lp139
F-935.6962339829298
aF-821.792745440965
aa(lp140
F-935.4493211080085
aF-821.9036834924243
aa(lp141
F-953.7353802529026
aF-798.495928664335
aa(lp142
F-953.4408026667479
aF-798.5955457933118
aa(lp143
F-1039.2350808710448
aF-774.7535012898151
aa(lp144
F-1039.0002236522532
aF-774.6319072817532
aa(lp145
F-948.7995902617067
aF-957.8774954281913
aa(lp146
F-948.6886641783585
aF-957.6383229563652
aa(lp147
F237.45929746113177
aF1696.388190954322
aa(lp148
F237.26660171981592
aF1696.2282513292841
aa(lp149
F-1711.8660716162326
aF-2550.379738739714
aa(lp150
F-1712.265429113833
aF-2550.3859865005197
aa(lp151
F-1681.824998601099
aF-2338.6277822885622
aa(lp152
F-1681.4775520518901
aF-2338.622850807233
aa(lp153
F-1516.0621632147722
aF-2585.876397854301
aa(lp154
F-1516.4178229964516
aF-2585.8776423537583
aa(lp155
F1018.4087056805108
aF3389.127779138334
aa(lp156
F1018.5970539334412
aF3389.322606500246
aa(lp157
F876.7603565640422
aF3284.854740397637
aa(lp158
F876.5157110284282
aF3284.7380547960697
aa(lp159
F254.39454639264332
aF3191.9493783027506
aa(lp160
F254.2197628970976
aF3192.146916944796
aa(lp161
F1282.809806489842
aF2945.2222927197627
aa(lp162
F1283.0664285170824
aF2945.1572344910273
aasS'is_vindex'
p163
I00
sS'is_eindex'
p164
I00
sb.